; Function Attrs: mustprogress nofree norecurse nosync nounwind willreturn memory(readwrite, argmem: write, inaccessiblemem: none) uwtable
define hidden void @_ZN35java_lang_AssertionStatusDirectives9set_defltEP7oopDescb(ptr noundef %0, i1 noundef zeroext %1) local_unnamed_addr #6 align 2 {
  %3 = zext i1 %1 to i8
  %4 = load i32, ptr @_ZN35java_lang_AssertionStatusDirectives13_deflt_offsetE, align 4
  %5 = ptrtoint ptr %0 to i64
  %6 = sext i32 %4 to i64
  %7 = add nsw i64 %6, %5
  %8 = inttoptr i64 %7 to ptr
  store i8 %3, ptr %8, align 1
  ret void
}